; Function Attrs: mustprogress uwtable
define noundef i32 @_ZN6icu_7713CalendarCache3getEPPS0_iR10UErrorCode(ptr noundef captures(none) %0, i32 noundef %1, ptr noundef nonnull align 4 dereferenceable(4) %2) local_unnamed_addr #0 align 2 personality ptr @__gxx_personality_v0 {
  %4 = load i32, ptr %2, align 4, !tbaa !27
  %5 = icmp slt i32 %4, 1
  br i1 %5, label %6, label %26

6:                                                ; preds = %3
  tail call void @umtx_lock_77(ptr noundef nonnull @_ZL6ccLock)
  %7 = load ptr, ptr %0, align 8, !tbaa !29
  %8 = icmp eq ptr %7, null
  br i1 %8, label %9, label %_ZN6icu_7713CalendarCache11createCacheEPPS0_R10UErrorCode.exit.thread

9:                                                ; preds = %6
  tail call void @ucln_i18n_registerCleanup_77(i32 noundef 11, ptr noundef nonnull @_ZL22calendar_astro_cleanupv)
  %10 = tail call noundef ptr @_ZN6icu_777UMemorynwEm(i64 noundef 16) #16
  %11 = icmp eq ptr %10, null
  br i1 %11, label %.thread.i, label %12

12:                                               ; preds = %9
  invoke void @_ZN6icu_7713CalendarCacheC1EiR10UErrorCode(ptr noundef nonnull align 8 dereferenceable(16) %10, i32 noundef 32, ptr noundef nonnull align 4 dereferenceable(4) %2)
          to label %13 unwind label %17

13:                                               ; preds = %12
  store ptr %10, ptr %0, align 8, !tbaa !29
  %14 = load i32, ptr %2, align 4, !tbaa !27
  %15 = icmp slt i32 %14, 1
  br i1 %15, label %_ZN6icu_7713CalendarCache11createCacheEPPS0_R10UErrorCode.exit.thread, label %_ZN6icu_7713CalendarCache11createCacheEPPS0_R10UErrorCode.exit

.thread.i:                                        ; preds = %9
  store ptr null, ptr %0, align 8, !tbaa !29
  %16 = load i32, ptr %2, align 4, !tbaa !27
  br label %_ZN6icu_7713CalendarCache11createCacheEPPS0_R10UErrorCode.exit.thread10

17:                                               ; preds = %12
  %18 = landingpad { ptr, i32 }
          cleanup
  tail call void @_ZN6icu_777UMemorydlEPv(ptr noundef nonnull %10) #16
  resume { ptr, i32 } %18

_ZN6icu_7713CalendarCache11createCacheEPPS0_R10UErrorCode.exit: ; preds = %13
  %19 = load ptr, ptr %10, align 8, !tbaa !21
  %20 = getelementptr inbounds nuw i8, ptr %19, i64 8
  %21 = load ptr, ptr %20, align 8
  tail call void %21(ptr noundef nonnull align 8 dereferenceable(16) %10) #16
  %.pre.pre = load i32, ptr %2, align 4, !tbaa !27
  store ptr null, ptr %0, align 8, !tbaa !29
  br label %_ZN6icu_7713CalendarCache11createCacheEPPS0_R10UErrorCode.exit.thread10

_ZN6icu_7713CalendarCache11createCacheEPPS0_R10UErrorCode.exit.thread10: ; preds = %.thread.i, %_ZN6icu_7713CalendarCache11createCacheEPPS0_R10UErrorCode.exit
  %.sink12.in = phi i32 [ %16, %.thread.i ], [ %.pre.pre, %_ZN6icu_7713CalendarCache11createCacheEPPS0_R10UErrorCode.exit ]
  %.sink12 = icmp sgt i32 %.sink12.in, 0
  tail call void @llvm.assume(i1 %.sink12)
  br label %.sink.split

_ZN6icu_7713CalendarCache11createCacheEPPS0_R10UErrorCode.exit.thread: ; preds = %13, %6
  %22 = phi ptr [ %7, %6 ], [ %10, %13 ]
  %23 = getelementptr inbounds nuw i8, ptr %22, i64 8
  %24 = load ptr, ptr %23, align 8, !tbaa !32
  %25 = tail call i32 @uhash_igeti_77(ptr noundef %24, i32 noundef %1)
  br label %.sink.split

.sink.split:                                      ; preds = %_ZN6icu_7713CalendarCache11createCacheEPPS0_R10UErrorCode.exit.thread10, %_ZN6icu_7713CalendarCache11createCacheEPPS0_R10UErrorCode.exit.thread
  %.0.ph = phi i32 [ %25, %_ZN6icu_7713CalendarCache11createCacheEPPS0_R10UErrorCode.exit.thread ], [ 0, %_ZN6icu_7713CalendarCache11createCacheEPPS0_R10UErrorCode.exit.thread10 ]
  tail call void @umtx_unlock_77(ptr noundef nonnull @_ZL6ccLock)
  br label %26

26:                                               ; preds = %.sink.split, %3
  %.0 = phi i32 [ 0, %3 ], [ %.0.ph, %.sink.split ]
  ret i32 %.0
}